target datalayout = "e-m:e-p270:32:32-p271:32:32-p272:64:64-i64:64-i128:128-f80:128-n8:16:32:64-S128"
target triple = "x86_64-pc-linux-gnu"

%struct._crc32_pclmul_bit_consts = type { [2 x i64], [2 x i64], [2 x i64], [2 x i64] }

; Function Attrs: nounwind uwtable
define hidden i64 @crc32_sse42_pclmul_update(i32 noundef %0, ptr noundef %1, ptr noundef %2, i64 noundef %3) #2 {
  %5 = alloca i64, align 8
  %6 = alloca i32, align 4
  %7 = alloca ptr, align 8
  %8 = alloca ptr, align 8
  %9 = alloca i64, align 8
  %10 = alloca ptr, align 8
  store i32 %0, ptr %6, align 4
  store ptr %1, ptr %7, align 8
  store ptr %2, ptr %8, align 8
  store i64 %3, ptr %9, align 8
  %11 = load i32, ptr %6, align 4
  %12 = icmp ugt i32 %11, 3
  br i1 %12, label %13, label %14

13:                                               ; preds = %4
  store i64 0, ptr %5, align 8
  br label %32

14:                                               ; preds = %4
  %15 = load i32, ptr %6, align 4
  %16 = zext i32 %15 to i64
  %17 = getelementptr inbounds [3 x %struct._crc32_pclmul_bit_consts], ptr @crc32_pclmul_consts_maps, i64 0, i64 %16
  store ptr %17, ptr %10, align 8
  %18 = load i32, ptr %6, align 4
  switch i32 %18, label %31 [
    i32 0, label %19
    i32 1, label %25
    i32 2, label %25
  ]

19:                                               ; preds = %14
  %20 = load ptr, ptr %7, align 8
  %21 = load ptr, ptr %8, align 8
  %22 = load i64, ptr %9, align 8
  %23 = load ptr, ptr %10, align 8
  %24 = call i64 @crc32_pclmul_batch(ptr noundef %20, ptr noundef %21, i64 noundef %22, ptr noundef %23)
  store i64 %24, ptr %5, align 8
  br label %32

25:                                               ; preds = %14, %14
  %26 = load ptr, ptr %7, align 8
  %27 = load ptr, ptr %8, align 8
  %28 = load i64, ptr %9, align 8
  %29 = load ptr, ptr %10, align 8
  %30 = call i64 @crc32_pclmul_reflected_batch(ptr noundef %26, ptr noundef %27, i64 noundef %28, ptr noundef %29)
  store i64 %30, ptr %5, align 8
  br label %32

31:                                               ; preds = %14
  store i64 0, ptr %5, align 8
  br label %32

32:                                               ; preds = %31, %25, %19, %13
  %33 = load i64, ptr %5, align 8
  ret i64 %33
}