; Function Attrs: nofree norecurse nosync nounwind memory(read, argmem: readwrite, inaccessiblemem: none) uwtable
define hidden i64 @crc32_sse42_pclmul_update(i32 noundef %0, ptr nocapture noundef %1, ptr nocapture noundef readonly %2, i64 noundef %3) #2 {
  %5 = icmp ugt i32 %0, 3
  br i1 %5, label %13, label %6

6:                                                ; preds = %4
  %7 = zext nneg i32 %0 to i64
  %8 = getelementptr inbounds [3 x %struct._crc32_pclmul_bit_consts], ptr @crc32_pclmul_consts_maps, i64 0, i64 %7
  switch i32 %0, label %13 [
    i32 0, label %9
    i32 1, label %11
    i32 2, label %11
  ]

9:                                                ; preds = %6
  %10 = tail call i64 @crc32_pclmul_batch(ptr noundef %1, ptr noundef %2, i64 noundef %3, ptr noundef nonnull %8)
  br label %13

11:                                               ; preds = %6, %6
  %12 = tail call i64 @crc32_pclmul_reflected_batch(ptr noundef %1, ptr noundef %2, i64 noundef %3, ptr noundef nonnull %8)
  br label %13

13:                                               ; preds = %6, %4, %11, %9
  %.0 = phi i64 [ %12, %11 ], [ %10, %9 ], [ 0, %4 ], [ 0, %6 ]
  ret i64 %.0
}